target datalayout = "e-m:e-p270:32:32-p271:32:32-p272:64:64-i64:64-i128:128-f80:128-n8:16:32:64-S128"
target triple = "x86_64-pc-linux-gnu"

%struct.JSON_Generator_StateStruct = type { i64, i64, i64, i64, i64, i64, i64, i64, i64, i8, i8, i8, i8 }
%struct.FBufferStruct = type { i32, i64, i64, i64, ptr, i64 }
%struct.rbimpl_size_mul_overflow_tag = type { i8, i64 }
%struct.hash_foreach_arg = type { ptr, i32 }

@eNestingError = internal global i64 0, align 8
@.str.85 = private unnamed_addr constant [27 x i8] c"nesting of %ld is too deep\00", align 1
@.str.86 = private unnamed_addr constant [3 x i8] c"{}\00", align 1

; Function Attrs: alwaysinline nounwind
define internal ptr @memcpy.inline(ptr noalias nonnull %0, ptr noalias nonnull %1, i64 %2) #15 {
  %4 = alloca ptr, align 8
  %5 = alloca ptr, align 8
  %6 = alloca i64, align 8
  store ptr %0, ptr %4, align 8, !tbaa !48
  store ptr %1, ptr %5, align 8, !tbaa !48
  store i64 %2, ptr %6, align 8, !tbaa !6
  %7 = load ptr, ptr %4, align 8, !tbaa !48
  %8 = load ptr, ptr %5, align 8, !tbaa !48
  %9 = load i64, ptr %6, align 8, !tbaa !6
  %10 = load ptr, ptr %4, align 8, !tbaa !48
  %11 = call i64 @llvm.objectsize.i64.p0(ptr %10, i1 false, i1 true, i1 false)
  %12 = call ptr @__memcpy_chk(ptr noundef %7, ptr noundef %8, i64 noundef %9, i64 noundef %11) #27
  ret ptr %12
}

; Function Attrs: inlinehint nounwind sspstrong willreturn memory(none) uwtable
define internal { i8, i64 } @rbimpl_size_mul_overflow(i64 noundef %0, i64 noundef %1) #6 {
  %3 = alloca %struct.rbimpl_size_mul_overflow_tag, align 8
  %4 = alloca i64, align 8
  %5 = alloca i64, align 8
  store i64 %0, ptr %4, align 8, !tbaa !6
  store i64 %1, ptr %5, align 8, !tbaa !6
  call void @llvm.memset.p0.i64(ptr align 8 %3, i8 0, i64 16, i1 false)
  %6 = load i64, ptr %4, align 8, !tbaa !6
  %7 = load i64, ptr %5, align 8, !tbaa !6
  %8 = getelementptr inbounds nuw %struct.rbimpl_size_mul_overflow_tag, ptr %3, i32 0, i32 1
  %9 = call { i64, i1 } @llvm.umul.with.overflow.i64(i64 %6, i64 %7)
  %10 = extractvalue { i64, i1 } %9, 1
  %11 = extractvalue { i64, i1 } %9, 0
  store i64 %11, ptr %8, align 8
  %12 = getelementptr inbounds nuw %struct.rbimpl_size_mul_overflow_tag, ptr %3, i32 0, i32 0
  %13 = zext i1 %10 to i8
  store i8 %13, ptr %12, align 8, !tbaa !53
  %14 = load { i8, i64 }, ptr %3, align 8
  ret { i8, i64 } %14
}

; Function Attrs: inlinehint nounwind sspstrong memory(argmem: readwrite, inaccessiblemem: readwrite) uwtable
define internal nonnull ptr @ruby_nonempty_memcpy(ptr noundef nonnull %0, ptr noundef %1, i64 noundef %2) #14 {
  %4 = alloca ptr, align 8
  %5 = alloca ptr, align 8
  %6 = alloca ptr, align 8
  %7 = alloca i64, align 8
  store ptr %0, ptr %5, align 8, !tbaa !48
  store ptr %1, ptr %6, align 8, !tbaa !48
  store i64 %2, ptr %7, align 8, !tbaa !6
  %8 = load i64, ptr %7, align 8, !tbaa !6
  %9 = icmp ne i64 %8, 0
  br i1 %9, label %10, label %15

10:                                               ; preds = %3
  %11 = load ptr, ptr %5, align 8, !tbaa !48
  %12 = load ptr, ptr %6, align 8, !tbaa !48
  %13 = load i64, ptr %7, align 8, !tbaa !6
  %14 = call ptr @memcpy.inline(ptr noundef %11, ptr noundef %12, i64 noundef %13) #27
  store ptr %14, ptr %4, align 8
  br label %17

15:                                               ; preds = %3
  %16 = load ptr, ptr %5, align 8, !tbaa !48
  store ptr %16, ptr %4, align 8
  br label %17

17:                                               ; preds = %15, %10
  %18 = load ptr, ptr %4, align 8
  ret ptr %18
}

; Function Attrs: inlinehint nounwind sspstrong uwtable
define internal i64 @rbimpl_size_mul_or_raise(i64 noundef %0, i64 noundef %1) #4 {
  %3 = alloca i64, align 8
  %4 = alloca i64, align 8
  %5 = alloca %struct.rbimpl_size_mul_overflow_tag, align 8
  store i64 %0, ptr %3, align 8, !tbaa !6
  store i64 %1, ptr %4, align 8, !tbaa !6
  call void @llvm.lifetime.start.p0(i64 16, ptr %5) #27
  %6 = load i64, ptr %3, align 8, !tbaa !6
  %7 = load i64, ptr %4, align 8, !tbaa !6
  %8 = call { i8, i64 } @rbimpl_size_mul_overflow(i64 noundef %6, i64 noundef %7) #28
  %9 = getelementptr inbounds nuw { i8, i64 }, ptr %5, i32 0, i32 0
  %10 = extractvalue { i8, i64 } %8, 0
  store i8 %10, ptr %9, align 8
  %11 = getelementptr inbounds nuw { i8, i64 }, ptr %5, i32 0, i32 1
  %12 = extractvalue { i8, i64 } %8, 1
  store i64 %12, ptr %11, align 8
  %13 = getelementptr inbounds nuw %struct.rbimpl_size_mul_overflow_tag, ptr %5, i32 0, i32 0
  %14 = load i8, ptr %13, align 8, !tbaa !53, !range !27, !noundef !28
  %15 = trunc i8 %14 to i1
  %16 = xor i1 %15, true
  %17 = xor i1 %16, true
  %18 = xor i1 %17, true
  %19 = zext i1 %18 to i32
  %20 = sext i32 %19 to i64
  %21 = call i64 @llvm.expect.i64(i64 %20, i64 1)
  %22 = icmp ne i64 %21, 0
  br i1 %22, label %23, label %26

23:                                               ; preds = %2
  %24 = getelementptr inbounds nuw %struct.rbimpl_size_mul_overflow_tag, ptr %5, i32 0, i32 1
  %25 = load i64, ptr %24, align 8, !tbaa !55
  call void @llvm.lifetime.end.p0(i64 16, ptr %5) #27
  ret i64 %25

26:                                               ; preds = %2
  %27 = load i64, ptr %3, align 8, !tbaa !6
  %28 = load i64, ptr %4, align 8, !tbaa !6
  call void @ruby_malloc_size_overflow(i64 noundef %27, i64 noundef %28) #30
  unreachable
}

; Function Attrs: inlinehint nounwind sspstrong uwtable
define internal void @fbuffer_inc_capa(ptr noundef %0, i64 noundef %1) #4 {
  %3 = alloca ptr, align 8
  %4 = alloca i64, align 8
  store ptr %0, ptr %3, align 8, !tbaa !57
  store i64 %1, ptr %4, align 8, !tbaa !6
  %5 = load i64, ptr %4, align 8, !tbaa !6
  %6 = load ptr, ptr %3, align 8, !tbaa !57
  %7 = getelementptr inbounds nuw %struct.FBufferStruct, ptr %6, i32 0, i32 3
  %8 = load i64, ptr %7, align 8, !tbaa !64
  %9 = load ptr, ptr %3, align 8, !tbaa !57
  %10 = getelementptr inbounds nuw %struct.FBufferStruct, ptr %9, i32 0, i32 2
  %11 = load i64, ptr %10, align 8, !tbaa !65
  %12 = sub i64 %8, %11
  %13 = icmp ugt i64 %5, %12
  %14 = xor i1 %13, true
  %15 = xor i1 %14, true
  %16 = zext i1 %15 to i32
  %17 = sext i32 %16 to i64
  %18 = call i64 @llvm.expect.i64(i64 %17, i64 0)
  %19 = icmp ne i64 %18, 0
  br i1 %19, label %20, label %23

20:                                               ; preds = %2
  %21 = load ptr, ptr %3, align 8, !tbaa !57
  %22 = load i64, ptr %4, align 8, !tbaa !6
  call void @fbuffer_do_inc_capa(ptr noundef %21, i64 noundef %22)
  br label %23

23:                                               ; preds = %20, %2
  ret void
}

; Function Attrs: inlinehint nounwind sspstrong uwtable
define internal void @fbuffer_append_char(ptr noundef %0, i8 noundef signext %1) #4 {
  %3 = alloca ptr, align 8
  %4 = alloca i8, align 1
  store ptr %0, ptr %3, align 8, !tbaa !57
  store i8 %1, ptr %4, align 1, !tbaa !68
  %5 = load ptr, ptr %3, align 8, !tbaa !57
  call void @fbuffer_inc_capa(ptr noundef %5, i64 noundef 1)
  %6 = load i8, ptr %4, align 1, !tbaa !68
  %7 = load ptr, ptr %3, align 8, !tbaa !57
  %8 = getelementptr inbounds nuw %struct.FBufferStruct, ptr %7, i32 0, i32 4
  %9 = load ptr, ptr %8, align 8, !tbaa !63
  %10 = load ptr, ptr %3, align 8, !tbaa !57
  %11 = getelementptr inbounds nuw %struct.FBufferStruct, ptr %10, i32 0, i32 2
  %12 = load i64, ptr %11, align 8, !tbaa !65
  %13 = getelementptr inbounds nuw i8, ptr %9, i64 %12
  store i8 %6, ptr %13, align 1, !tbaa !68
  %14 = load ptr, ptr %3, align 8, !tbaa !57
  %15 = getelementptr inbounds nuw %struct.FBufferStruct, ptr %14, i32 0, i32 2
  %16 = load i64, ptr %15, align 8, !tbaa !65
  %17 = add i64 %16, 1
  store i64 %17, ptr %15, align 8, !tbaa !65
  ret void
}

; Function Attrs: nounwind sspstrong uwtable
define internal void @fbuffer_append(ptr noundef %0, ptr noundef %1, i64 noundef %2) #0 {
  %4 = alloca ptr, align 8
  %5 = alloca ptr, align 8
  %6 = alloca i64, align 8
  store ptr %0, ptr %4, align 8, !tbaa !57
  store ptr %1, ptr %5, align 8, !tbaa !56
  store i64 %2, ptr %6, align 8, !tbaa !6
  %7 = load i64, ptr %6, align 8, !tbaa !6
  %8 = icmp ugt i64 %7, 0
  br i1 %8, label %9, label %28

9:                                                ; preds = %3
  %10 = load ptr, ptr %4, align 8, !tbaa !57
  %11 = load i64, ptr %6, align 8, !tbaa !6
  call void @fbuffer_inc_capa(ptr noundef %10, i64 noundef %11)
  %12 = load ptr, ptr %4, align 8, !tbaa !57
  %13 = getelementptr inbounds nuw %struct.FBufferStruct, ptr %12, i32 0, i32 4
  %14 = load ptr, ptr %13, align 8, !tbaa !63
  %15 = load ptr, ptr %4, align 8, !tbaa !57
  %16 = getelementptr inbounds nuw %struct.FBufferStruct, ptr %15, i32 0, i32 2
  %17 = load i64, ptr %16, align 8, !tbaa !65
  %18 = getelementptr inbounds nuw i8, ptr %14, i64 %17
  %19 = load ptr, ptr %5, align 8, !tbaa !56
  %20 = load i64, ptr %6, align 8, !tbaa !6
  %21 = call i64 @rbimpl_size_mul_or_raise(i64 noundef 1, i64 noundef %20)
  %22 = call nonnull ptr @ruby_nonempty_memcpy(ptr noundef %18, ptr noundef %19, i64 noundef %21) #31
  %23 = load i64, ptr %6, align 8, !tbaa !6
  %24 = load ptr, ptr %4, align 8, !tbaa !57
  %25 = getelementptr inbounds nuw %struct.FBufferStruct, ptr %24, i32 0, i32 2
  %26 = load i64, ptr %25, align 8, !tbaa !65
  %27 = add i64 %26, %23
  store i64 %27, ptr %25, align 8, !tbaa !65
  br label %28

28:                                               ; preds = %9, %3
  ret void
}

; Function Attrs: inlinehint nounwind sspstrong uwtable
define internal i64 @increase_depth(ptr noundef %0) #4 {
  %2 = alloca ptr, align 8
  %3 = alloca i64, align 8
  store ptr %0, ptr %2, align 8, !tbaa !12
  call void @llvm.lifetime.start.p0(i64 8, ptr %3) #27
  %4 = load ptr, ptr %2, align 8, !tbaa !12
  %5 = getelementptr inbounds nuw %struct.JSON_Generator_StateStruct, ptr %4, i32 0, i32 7
  %6 = load i64, ptr %5, align 8, !tbaa !32
  %7 = add nsw i64 %6, 1
  store i64 %7, ptr %5, align 8, !tbaa !32
  store i64 %7, ptr %3, align 8, !tbaa !6
  %8 = load i64, ptr %3, align 8, !tbaa !6
  %9 = load ptr, ptr %2, align 8, !tbaa !12
  %10 = getelementptr inbounds nuw %struct.JSON_Generator_StateStruct, ptr %9, i32 0, i32 6
  %11 = load i64, ptr %10, align 8, !tbaa !25
  %12 = icmp sgt i64 %8, %11
  br i1 %12, label %13, label %18

13:                                               ; preds = %1
  %14 = load ptr, ptr %2, align 8, !tbaa !12
  %15 = getelementptr inbounds nuw %struct.JSON_Generator_StateStruct, ptr %14, i32 0, i32 6
  %16 = load i64, ptr %15, align 8, !tbaa !25
  %17 = icmp ne i64 %16, 0
  br label %18

18:                                               ; preds = %13, %1
  %19 = phi i1 [ false, %1 ], [ %17, %13 ]
  %20 = xor i1 %19, true
  %21 = xor i1 %20, true
  %22 = zext i1 %21 to i32
  %23 = sext i32 %22 to i64
  %24 = call i64 @llvm.expect.i64(i64 %23, i64 0)
  %25 = icmp ne i64 %24, 0
  br i1 %25, label %26, label %32

26:                                               ; preds = %18
  %27 = load i64, ptr @eNestingError, align 8, !tbaa !6
  %28 = load ptr, ptr %2, align 8, !tbaa !12
  %29 = getelementptr inbounds nuw %struct.JSON_Generator_StateStruct, ptr %28, i32 0, i32 7
  %30 = load i64, ptr %29, align 8, !tbaa !32
  %31 = add nsw i64 %30, -1
  store i64 %31, ptr %29, align 8, !tbaa !32
  call void (i64, ptr, ...) @rb_raise(i64 noundef %27, ptr noundef @.str.85, i64 noundef %31) #30
  unreachable

32:                                               ; preds = %18
  %33 = load i64, ptr %3, align 8, !tbaa !6
  call void @llvm.lifetime.end.p0(i64 8, ptr %3) #27
  ret i64 %33
}

; Function Attrs: nounwind sspstrong uwtable
define internal void @generate_json_object(ptr noundef %0, ptr noundef %1, ptr noundef %2, i64 noundef %3) #0 {
  %5 = alloca ptr, align 8
  %6 = alloca ptr, align 8
  %7 = alloca ptr, align 8
  %8 = alloca i64, align 8
  %9 = alloca i32, align 4
  %10 = alloca i64, align 8
  %11 = alloca i32, align 4
  %12 = alloca %struct.hash_foreach_arg, align 8
  store ptr %0, ptr %5, align 8, !tbaa !57
  store ptr %1, ptr %6, align 8, !tbaa !58
  store ptr %2, ptr %7, align 8, !tbaa !12
  store i64 %3, ptr %8, align 8, !tbaa !6
  call void @llvm.lifetime.start.p0(i64 4, ptr %9) #27
  call void @llvm.lifetime.start.p0(i64 8, ptr %10) #27
  %13 = load ptr, ptr %7, align 8, !tbaa !12
  %14 = call i64 @increase_depth(ptr noundef %13)
  store i64 %14, ptr %10, align 8, !tbaa !6
  %15 = load i64, ptr %8, align 8, !tbaa !6
  %16 = call i64 @rb_hash_size_num(i64 noundef %15)
  %17 = icmp eq i64 %16, 0
  br i1 %17, label %18, label %24

18:                                               ; preds = %4
  %19 = load ptr, ptr %5, align 8, !tbaa !57
  call void @fbuffer_append(ptr noundef %19, ptr noundef @.str.86, i64 noundef 2)
  %20 = load ptr, ptr %7, align 8, !tbaa !12
  %21 = getelementptr inbounds nuw %struct.JSON_Generator_StateStruct, ptr %20, i32 0, i32 7
  %22 = load i64, ptr %21, align 8, !tbaa !32
  %23 = add nsw i64 %22, -1
  store i64 %23, ptr %21, align 8, !tbaa !32
  store i32 1, ptr %11, align 4
  br label %79

24:                                               ; preds = %4
  %25 = load ptr, ptr %5, align 8, !tbaa !57
  call void @fbuffer_append_char(ptr noundef %25, i8 noundef signext 123)
  call void @llvm.lifetime.start.p0(i64 16, ptr %12) #27
  %26 = getelementptr inbounds nuw %struct.hash_foreach_arg, ptr %12, i32 0, i32 0
  %27 = load ptr, ptr %6, align 8, !tbaa !58
  store ptr %27, ptr %26, align 8, !tbaa !70
  %28 = getelementptr inbounds nuw %struct.hash_foreach_arg, ptr %12, i32 0, i32 1
  store i32 0, ptr %28, align 8, !tbaa !72
  %29 = getelementptr i8, ptr %12, i64 12
  call void @llvm.memset.p0.i64(ptr align 4 %29, i8 0, i64 4, i1 false)
  %30 = load i64, ptr %8, align 8, !tbaa !6
  %31 = ptrtoint ptr %12 to i64
  call void @rb_hash_foreach(i64 noundef %30, ptr noundef @json_object_i, i64 noundef %31)
  %32 = load ptr, ptr %7, align 8, !tbaa !12
  %33 = getelementptr inbounds nuw %struct.JSON_Generator_StateStruct, ptr %32, i32 0, i32 7
  %34 = load i64, ptr %33, align 8, !tbaa !32
  %35 = add nsw i64 %34, -1
  store i64 %35, ptr %33, align 8, !tbaa !32
  store i64 %35, ptr %10, align 8, !tbaa !6
  %36 = load ptr, ptr %7, align 8, !tbaa !12
  %37 = getelementptr inbounds nuw %struct.JSON_Generator_StateStruct, ptr %36, i32 0, i32 3
  %38 = load i64, ptr %37, align 8, !tbaa !22
  %39 = icmp ne i64 %38, 0
  %40 = xor i1 %39, true
  %41 = xor i1 %40, true
  %42 = zext i1 %41 to i32
  %43 = sext i32 %42 to i64
  %44 = call i64 @llvm.expect.i64(i64 %43, i64 0)
  %45 = icmp ne i64 %44, 0
  br i1 %45, label %46, label %77

46:                                               ; preds = %24
  %47 = load ptr, ptr %5, align 8, !tbaa !57
  %48 = load ptr, ptr %7, align 8, !tbaa !12
  %49 = getelementptr inbounds nuw %struct.JSON_Generator_StateStruct, ptr %48, i32 0, i32 3
  %50 = load i64, ptr %49, align 8, !tbaa !22
  call void @fbuffer_append_str(ptr noundef %47, i64 noundef %50)
  %51 = load ptr, ptr %7, align 8, !tbaa !12
  %52 = getelementptr inbounds nuw %struct.JSON_Generator_StateStruct, ptr %51, i32 0, i32 0
  %53 = load i64, ptr %52, align 8, !tbaa !17
  %54 = icmp ne i64 %53, 0
  %55 = xor i1 %54, true
  %56 = xor i1 %55, true
  %57 = zext i1 %56 to i32
  %58 = sext i32 %57 to i64
  %59 = call i64 @llvm.expect.i64(i64 %58, i64 0)
  %60 = icmp ne i64 %59, 0
  br i1 %60, label %61, label %76

61:                                               ; preds = %46
  store i32 0, ptr %9, align 4, !tbaa !10
  br label %62

62:                                               ; preds = %72, %61
  %63 = load i32, ptr %9, align 4, !tbaa !10
  %64 = sext i32 %63 to i64
  %65 = load i64, ptr %10, align 8, !tbaa !6
  %66 = icmp slt i64 %64, %65
  br i1 %66, label %67, label %75

67:                                               ; preds = %62
  %68 = load ptr, ptr %5, align 8, !tbaa !57
  %69 = load ptr, ptr %7, align 8, !tbaa !12
  %70 = getelementptr inbounds nuw %struct.JSON_Generator_StateStruct, ptr %69, i32 0, i32 0
  %71 = load i64, ptr %70, align 8, !tbaa !17
  call void @fbuffer_append_str(ptr noundef %68, i64 noundef %71)
  br label %72

72:                                               ; preds = %67
  %73 = load i32, ptr %9, align 4, !tbaa !10
  %74 = add nsw i32 %73, 1
  store i32 %74, ptr %9, align 4, !tbaa !10
  br label %62

75:                                               ; preds = %62
  br label %76

76:                                               ; preds = %75, %46
  br label %77

77:                                               ; preds = %76, %24
  %78 = load ptr, ptr %5, align 8, !tbaa !57
  call void @fbuffer_append_char(ptr noundef %78, i8 noundef signext 125)
  call void @llvm.lifetime.end.p0(i64 16, ptr %12) #27
  store i32 0, ptr %11, align 4
  br label %79

79:                                               ; preds = %77, %18
  call void @llvm.lifetime.end.p0(i64 8, ptr %10) #27
  call void @llvm.lifetime.end.p0(i64 4, ptr %9) #27
  %80 = load i32, ptr %11, align 4
  switch i32 %80, label %82 [
    i32 0, label %81
    i32 1, label %81
  ]

81:                                               ; preds = %79, %79
  ret void

82:                                               ; preds = %79
  unreachable
}