; Function Attrs: nounwind sspstrong uwtable
define internal void @generate_json_object(ptr noundef captures(none) %0, ptr noundef %1, ptr noundef captures(none) %2, i64 noundef %3) #0 {
  %5 = alloca %struct.hash_foreach_arg, align 8
  %6 = getelementptr inbounds nuw i8, ptr %2, i64 56
  %7 = load i64, ptr %6, align 8, !tbaa !39
  %8 = add nsw i64 %7, 1
  store i64 %8, ptr %6, align 8, !tbaa !39
  %9 = getelementptr inbounds nuw i8, ptr %2, i64 48
  %10 = load i64, ptr %9, align 8, !tbaa !18
  %.not.i = icmp sge i64 %7, %10
  %11 = icmp ne i64 %10, 0
  %spec.select.i = and i1 %.not.i, %11
  br i1 %spec.select.i, label %12, label %increase_depth.exit, !prof !58

12:                                               ; preds = %4
  %13 = load i64, ptr @eNestingError, align 8, !tbaa !6
  store i64 %7, ptr %6, align 8, !tbaa !39
  tail call void (i64, ptr, ...) @rb_raise(i64 noundef %13, ptr noundef nonnull @.str.85, i64 noundef %7) #26
  unreachable

increase_depth.exit:                              ; preds = %4
  %14 = tail call i64 @rb_hash_size_num(i64 noundef %3) #22
  %15 = icmp eq i64 %14, 0
  %16 = getelementptr inbounds nuw i8, ptr %0, i64 24
  %17 = load i64, ptr %16, align 8, !tbaa !47
  %18 = getelementptr inbounds nuw i8, ptr %0, i64 16
  %19 = load i64, ptr %18, align 8, !tbaa !56
  br i1 %15, label %20, label %32

20:                                               ; preds = %increase_depth.exit
  %21 = sub i64 %17, %19
  %22 = icmp ult i64 %21, 2
  br i1 %22, label %23, label %fbuffer_append.exit, !prof !58

23:                                               ; preds = %20
  tail call fastcc void @fbuffer_do_inc_capa(ptr noundef nonnull %0, i64 noundef range(i64 1, 0) 2)
  %.pre.i = load i64, ptr %18, align 8, !tbaa !56
  br label %fbuffer_append.exit

fbuffer_append.exit:                              ; preds = %20, %23
  %24 = phi i64 [ %.pre.i, %23 ], [ %19, %20 ]
  %25 = getelementptr inbounds nuw i8, ptr %0, i64 32
  %26 = load ptr, ptr %25, align 8, !tbaa !46
  %27 = getelementptr inbounds nuw i8, ptr %26, i64 %24
  store i16 32123, ptr %27, align 1
  %28 = load i64, ptr %18, align 8, !tbaa !56
  %29 = add i64 %28, 2
  store i64 %29, ptr %18, align 8, !tbaa !56
  %30 = load i64, ptr %6, align 8, !tbaa !39
  %31 = add nsw i64 %30, -1
  store i64 %31, ptr %6, align 8, !tbaa !39
  br label %61

32:                                               ; preds = %increase_depth.exit
  %33 = icmp eq i64 %17, %19
  br i1 %33, label %34, label %fbuffer_append_char.exit, !prof !58

34:                                               ; preds = %32
  tail call fastcc void @fbuffer_do_inc_capa(ptr noundef nonnull %0, i64 noundef 1)
  %.pre.i19 = load i64, ptr %18, align 8, !tbaa !56
  br label %fbuffer_append_char.exit

fbuffer_append_char.exit:                         ; preds = %32, %34
  %35 = phi i64 [ %19, %32 ], [ %.pre.i19, %34 ]
  %36 = getelementptr inbounds nuw i8, ptr %0, i64 32
  %37 = load ptr, ptr %36, align 8, !tbaa !46
  %38 = getelementptr inbounds nuw i8, ptr %37, i64 %35
  store i8 123, ptr %38, align 1, !tbaa !59
  %39 = load i64, ptr %18, align 8, !tbaa !56
  %40 = add i64 %39, 1
  store i64 %40, ptr %18, align 8, !tbaa !56
  call void @llvm.lifetime.start.p0(i64 16, ptr nonnull %5) #22
  store ptr %1, ptr %5, align 8, !tbaa !64
  %41 = getelementptr inbounds nuw i8, ptr %5, i64 8
  store i32 0, ptr %41, align 8, !tbaa !67
  %42 = getelementptr inbounds nuw i8, ptr %5, i64 12
  store i32 0, ptr %42, align 4
  %43 = ptrtoint ptr %5 to i64
  call void @rb_hash_foreach(i64 noundef %3, ptr noundef nonnull @json_object_i, i64 noundef %43) #22
  %44 = load i64, ptr %6, align 8, !tbaa !39
  %45 = add i64 %44, -1
  store i64 %45, ptr %6, align 8, !tbaa !39
  %46 = getelementptr inbounds nuw i8, ptr %2, i64 24
  %47 = load i64, ptr %46, align 8, !tbaa !28
  %.not = icmp eq i64 %47, 0
  br i1 %.not, label %.loopexit, label %48, !prof !68

48:                                               ; preds = %fbuffer_append_char.exit
  call fastcc void @fbuffer_append_str(ptr noundef nonnull %0, i64 noundef %47)
  %49 = load i64, ptr %2, align 8, !tbaa !25
  %.not18 = icmp eq i64 %49, 0
  br i1 %.not18, label %.loopexit, label %.preheader, !prof !68

.preheader:                                       ; preds = %48
  %50 = icmp sgt i64 %44, 1
  br i1 %50, label %.lr.ph, label %.loopexit

.lr.ph:                                           ; preds = %.preheader, %.lr.ph
  %indvars.iv = phi i64 [ %indvars.iv.next, %.lr.ph ], [ 0, %.preheader ]
  %51 = load i64, ptr %2, align 8, !tbaa !25
  call fastcc void @fbuffer_append_str(ptr noundef nonnull %0, i64 noundef %51)
  %indvars.iv.next = add nuw nsw i64 %indvars.iv, 1
  %exitcond.not = icmp eq i64 %indvars.iv.next, %45
  br i1 %exitcond.not, label %.loopexit, label %.lr.ph

.loopexit:                                        ; preds = %.lr.ph, %.preheader, %48, %fbuffer_append_char.exit
  %52 = load i64, ptr %16, align 8, !tbaa !47
  %53 = load i64, ptr %18, align 8, !tbaa !56
  %54 = icmp eq i64 %52, %53
  br i1 %54, label %55, label %fbuffer_append_char.exit21, !prof !58

55:                                               ; preds = %.loopexit
  call fastcc void @fbuffer_do_inc_capa(ptr noundef nonnull %0, i64 noundef 1)
  %.pre.i20 = load i64, ptr %18, align 8, !tbaa !56
  br label %fbuffer_append_char.exit21

fbuffer_append_char.exit21:                       ; preds = %.loopexit, %55
  %56 = phi i64 [ %53, %.loopexit ], [ %.pre.i20, %55 ]
  %57 = load ptr, ptr %36, align 8, !tbaa !46
  %58 = getelementptr inbounds nuw i8, ptr %57, i64 %56
  store i8 125, ptr %58, align 1, !tbaa !59
  %59 = load i64, ptr %18, align 8, !tbaa !56
  %60 = add i64 %59, 1
  store i64 %60, ptr %18, align 8, !tbaa !56
  call void @llvm.lifetime.end.p0(i64 16, ptr nonnull %5) #22
  br label %61

61:                                               ; preds = %fbuffer_append_char.exit21, %fbuffer_append.exit
  ret void
}